target datalayout = "e-m:e-p270:32:32-p271:32:32-p272:64:64-i64:64-i128:128-f80:128-n8:16:32:64-S128"
target triple = "x86_64-pc-linux-gnu"

%struct.FrameRectangle = type { i32, i32, i32, i32 }
%struct.WebPAnimEncoderOptions = type { %struct.WebPMuxAnimParams, i32, i32, i32, i32, i32, [4 x i32] }
%struct.WebPMuxAnimParams = type { i32, i32 }
%struct.WebPAnimEncoder = type { i32, i32, %struct.WebPAnimEncoderOptions, %struct.FrameRectangle, %struct.WebPConfig, %struct.WebPConfig, ptr, %struct.WebPPicture, i32, %struct.WebPPicture, %struct.WebPPicture, ptr, i64, i64, i64, i64, i64, i32, i32, i32, i32, i32, i32, i32, i64, i64, ptr, [100 x i8] }
%struct.WebPConfig = type { i32, float, i32, i32, i32, float, i32, i32, i32, i32, i32, i32, i32, i32, i32, i32, i32, i32, i32, i32, i32, i32, i32, i32, i32, i32, i32, i32, i32 }
%struct.WebPPicture = type { i32, i32, i32, i32, ptr, ptr, ptr, i32, i32, ptr, i32, [2 x i32], ptr, i32, [3 x i32], ptr, ptr, i32, ptr, ptr, i32, ptr, ptr, [3 x i32], ptr, ptr, [8 x i32], ptr, ptr, [2 x ptr] }
%struct.EncodedFrame = type { %struct.WebPMuxFrameInfo, %struct.WebPMuxFrameInfo, i32 }
%struct.WebPMuxFrameInfo = type { %struct.WebPData, i32, i32, i32, i32, i32, i32, [1 x i32] }
%struct.WebPData = type { ptr, i64 }

@__const.IncreasePreviousDuration.rect = private unnamed_addr constant %struct.FrameRectangle { i32 0, i32 0, i32 1, i32 1 }, align 4
@__const.IncreasePreviousDuration.lossless_1x1_bytes = private unnamed_addr constant [28 x i8] c"RIFF\14\00\00\00WEBPVP8L\08\00\00\00/\00\00\00\10\88\88\08", align 16
@__const.IncreasePreviousDuration.lossy_1x1_bytes = private unnamed_addr constant [72 x i8] c"RIFF@\00\00\00WEBPVP8X\0A\00\00\00\10\00\00\00\00\00\00\00\00\00ALPH\02\00\00\00\00\00VP8 \18\00\00\000\01\00\9D\01*\01\00\01\00\02\004%\A4\00\03p\00\FE\FB\FDP\00", align 16

; Function Attrs: inlinehint nounwind uwtable
define internal void @WebPDataInit(ptr noundef %0) #4 {
  %2 = alloca ptr, align 8
  store ptr %0, ptr %2, align 8, !tbaa !116
  %3 = load ptr, ptr %2, align 8, !tbaa !116
  %4 = icmp ne ptr %3, null
  br i1 %4, label %5, label %7

5:                                                ; preds = %1
  %6 = load ptr, ptr %2, align 8, !tbaa !116
  call void @llvm.memset.p0.i64(ptr align 8 %6, i8 0, i64 16, i1 false)
  br label %7

7:                                                ; preds = %5, %1
  ret void
}

; Function Attrs: inlinehint nounwind uwtable
define internal i32 @WebPDataCopy(ptr noundef %0, ptr noundef %1) #4 {
  %3 = alloca i32, align 4
  %4 = alloca ptr, align 8
  %5 = alloca ptr, align 8
  store ptr %0, ptr %4, align 8, !tbaa !116
  store ptr %1, ptr %5, align 8, !tbaa !116
  %6 = load ptr, ptr %4, align 8, !tbaa !116
  %7 = icmp eq ptr %6, null
  br i1 %7, label %11, label %8

8:                                                ; preds = %2
  %9 = load ptr, ptr %5, align 8, !tbaa !116
  %10 = icmp eq ptr %9, null
  br i1 %10, label %11, label %12

11:                                               ; preds = %8, %2
  store i32 0, ptr %3, align 4
  br label %51

12:                                               ; preds = %8
  %13 = load ptr, ptr %5, align 8, !tbaa !116
  call void @WebPDataInit(ptr noundef %13)
  %14 = load ptr, ptr %4, align 8, !tbaa !116
  %15 = getelementptr inbounds nuw %struct.WebPData, ptr %14, i32 0, i32 0
  %16 = load ptr, ptr %15, align 8, !tbaa !90
  %17 = icmp ne ptr %16, null
  br i1 %17, label %18, label %50

18:                                               ; preds = %12
  %19 = load ptr, ptr %4, align 8, !tbaa !116
  %20 = getelementptr inbounds nuw %struct.WebPData, ptr %19, i32 0, i32 1
  %21 = load i64, ptr %20, align 8, !tbaa !91
  %22 = icmp ne i64 %21, 0
  br i1 %22, label %23, label %50

23:                                               ; preds = %18
  %24 = load ptr, ptr %4, align 8, !tbaa !116
  %25 = getelementptr inbounds nuw %struct.WebPData, ptr %24, i32 0, i32 1
  %26 = load i64, ptr %25, align 8, !tbaa !91
  %27 = call ptr @WebPMalloc(i64 noundef %26)
  %28 = load ptr, ptr %5, align 8, !tbaa !116
  %29 = getelementptr inbounds nuw %struct.WebPData, ptr %28, i32 0, i32 0
  store ptr %27, ptr %29, align 8, !tbaa !90
  %30 = load ptr, ptr %5, align 8, !tbaa !116
  %31 = getelementptr inbounds nuw %struct.WebPData, ptr %30, i32 0, i32 0
  %32 = load ptr, ptr %31, align 8, !tbaa !90
  %33 = icmp eq ptr %32, null
  br i1 %33, label %34, label %35

34:                                               ; preds = %23
  store i32 0, ptr %3, align 4
  br label %51

35:                                               ; preds = %23
  %36 = load ptr, ptr %5, align 8, !tbaa !116
  %37 = getelementptr inbounds nuw %struct.WebPData, ptr %36, i32 0, i32 0
  %38 = load ptr, ptr %37, align 8, !tbaa !90
  %39 = load ptr, ptr %4, align 8, !tbaa !116
  %40 = getelementptr inbounds nuw %struct.WebPData, ptr %39, i32 0, i32 0
  %41 = load ptr, ptr %40, align 8, !tbaa !90
  %42 = load ptr, ptr %4, align 8, !tbaa !116
  %43 = getelementptr inbounds nuw %struct.WebPData, ptr %42, i32 0, i32 1
  %44 = load i64, ptr %43, align 8, !tbaa !91
  call void @llvm.memcpy.p0.p0.i64(ptr align 1 %38, ptr align 1 %41, i64 %44, i1 false)
  %45 = load ptr, ptr %4, align 8, !tbaa !116
  %46 = getelementptr inbounds nuw %struct.WebPData, ptr %45, i32 0, i32 1
  %47 = load i64, ptr %46, align 8, !tbaa !91
  %48 = load ptr, ptr %5, align 8, !tbaa !116
  %49 = getelementptr inbounds nuw %struct.WebPData, ptr %48, i32 0, i32 1
  store i64 %47, ptr %49, align 8, !tbaa !91
  br label %50

50:                                               ; preds = %35, %18, %12
  store i32 1, ptr %3, align 4
  br label %51

51:                                               ; preds = %50, %34, %11
  %52 = load i32, ptr %3, align 4
  ret i32 %52
}

; Function Attrs: nounwind uwtable
define internal ptr @GetFrame(ptr noundef %0, i64 noundef %1) #0 {
  %3 = alloca ptr, align 8
  %4 = alloca i64, align 8
  store ptr %0, ptr %3, align 8, !tbaa !17
  store i64 %1, ptr %4, align 8, !tbaa !64
  %5 = load ptr, ptr %3, align 8, !tbaa !17
  %6 = getelementptr inbounds nuw %struct.WebPAnimEncoder, ptr %5, i32 0, i32 11
  %7 = load ptr, ptr %6, align 8, !tbaa !39
  %8 = load ptr, ptr %3, align 8, !tbaa !17
  %9 = getelementptr inbounds nuw %struct.WebPAnimEncoder, ptr %8, i32 0, i32 13
  %10 = load i64, ptr %9, align 8, !tbaa !59
  %11 = load i64, ptr %4, align 8, !tbaa !64
  %12 = add i64 %10, %11
  %13 = getelementptr inbounds nuw %struct.EncodedFrame, ptr %7, i64 %12
  ret ptr %13
}

; Function Attrs: nounwind uwtable
define internal i32 @IncreasePreviousDuration(ptr noundef %0, i32 noundef %1) #0 {
  %3 = alloca i32, align 4
  %4 = alloca ptr, align 8
  %5 = alloca i32, align 4
  %6 = alloca i64, align 8
  %7 = alloca ptr, align 8
  %8 = alloca i32, align 4
  %9 = alloca %struct.FrameRectangle, align 4
  %10 = alloca [28 x i8], align 16
  %11 = alloca %struct.WebPData, align 8
  %12 = alloca [72 x i8], align 16
  %13 = alloca %struct.WebPData, align 8
  %14 = alloca i32, align 4
  %15 = alloca ptr, align 8
  %16 = alloca i32, align 4
  store ptr %0, ptr %4, align 8, !tbaa !17
  store i32 %1, ptr %5, align 4, !tbaa !8
  call void @llvm.lifetime.start.p0(i64 8, ptr %6) #8
  %17 = load ptr, ptr %4, align 8, !tbaa !17
  %18 = getelementptr inbounds nuw %struct.WebPAnimEncoder, ptr %17, i32 0, i32 14
  %19 = load i64, ptr %18, align 8, !tbaa !60
  %20 = sub i64 %19, 1
  store i64 %20, ptr %6, align 8, !tbaa !64
  call void @llvm.lifetime.start.p0(i64 8, ptr %7) #8
  %21 = load ptr, ptr %4, align 8, !tbaa !17
  %22 = load i64, ptr %6, align 8, !tbaa !64
  %23 = call ptr @GetFrame(ptr noundef %21, i64 noundef %22)
  store ptr %23, ptr %7, align 8, !tbaa !52
  call void @llvm.lifetime.start.p0(i64 4, ptr %8) #8
  %24 = load ptr, ptr %7, align 8, !tbaa !52
  %25 = getelementptr inbounds nuw %struct.EncodedFrame, ptr %24, i32 0, i32 0
  %26 = getelementptr inbounds nuw %struct.WebPMuxFrameInfo, ptr %25, i32 0, i32 3
  %27 = load i32, ptr %26, align 8, !tbaa !86
  %28 = load i32, ptr %5, align 4, !tbaa !8
  %29 = add nsw i32 %27, %28
  store i32 %29, ptr %8, align 4, !tbaa !8
  %30 = load i32, ptr %8, align 4, !tbaa !8
  %31 = icmp sge i32 %30, 16777216
  br i1 %31, label %32, label %113

32:                                               ; preds = %2
  call void @llvm.lifetime.start.p0(i64 16, ptr %9) #8
  call void @llvm.memcpy.p0.p0.i64(ptr align 4 %9, ptr align 4 @__const.IncreasePreviousDuration.rect, i64 16, i1 false)
  call void @llvm.lifetime.start.p0(i64 28, ptr %10) #8
  call void @llvm.memcpy.p0.p0.i64(ptr align 16 %10, ptr align 16 @__const.IncreasePreviousDuration.lossless_1x1_bytes, i64 28, i1 false)
  call void @llvm.lifetime.start.p0(i64 16, ptr %11) #8
  %33 = getelementptr inbounds nuw %struct.WebPData, ptr %11, i32 0, i32 0
  %34 = getelementptr inbounds [28 x i8], ptr %10, i64 0, i64 0
  store ptr %34, ptr %33, align 8, !tbaa !90
  %35 = getelementptr inbounds nuw %struct.WebPData, ptr %11, i32 0, i32 1
  store i64 28, ptr %35, align 8, !tbaa !91
  call void @llvm.lifetime.start.p0(i64 72, ptr %12) #8
  call void @llvm.memcpy.p0.p0.i64(ptr align 16 %12, ptr align 16 @__const.IncreasePreviousDuration.lossy_1x1_bytes, i64 72, i1 false)
  call void @llvm.lifetime.start.p0(i64 16, ptr %13) #8
  %36 = getelementptr inbounds nuw %struct.WebPData, ptr %13, i32 0, i32 0
  %37 = getelementptr inbounds [72 x i8], ptr %12, i64 0, i64 0
  store ptr %37, ptr %36, align 8, !tbaa !90
  %38 = getelementptr inbounds nuw %struct.WebPData, ptr %13, i32 0, i32 1
  store i64 72, ptr %38, align 8, !tbaa !91
  call void @llvm.lifetime.start.p0(i64 4, ptr %14) #8
  %39 = load ptr, ptr %4, align 8, !tbaa !17
  %40 = getelementptr inbounds nuw %struct.WebPAnimEncoder, ptr %39, i32 0, i32 4
  %41 = getelementptr inbounds nuw %struct.WebPConfig, ptr %40, i32 0, i32 0
  %42 = load i32, ptr %41, align 4, !tbaa !92
  %43 = icmp ne i32 %42, 0
  br i1 %43, label %50, label %44

44:                                               ; preds = %32
  %45 = load ptr, ptr %4, align 8, !tbaa !17
  %46 = getelementptr inbounds nuw %struct.WebPAnimEncoder, ptr %45, i32 0, i32 2
  %47 = getelementptr inbounds nuw %struct.WebPAnimEncoderOptions, ptr %46, i32 0, i32 4
  %48 = load i32, ptr %47, align 4, !tbaa !93
  %49 = icmp ne i32 %48, 0
  br label %50

50:                                               ; preds = %44, %32
  %51 = phi i1 [ true, %32 ], [ %49, %44 ]
  %52 = zext i1 %51 to i32
  store i32 %52, ptr %14, align 4, !tbaa !8
  call void @llvm.lifetime.start.p0(i64 8, ptr %15) #8
  %53 = load ptr, ptr %4, align 8, !tbaa !17
  %54 = load ptr, ptr %4, align 8, !tbaa !17
  %55 = getelementptr inbounds nuw %struct.WebPAnimEncoder, ptr %54, i32 0, i32 14
  %56 = load i64, ptr %55, align 8, !tbaa !60
  %57 = call ptr @GetFrame(ptr noundef %53, i64 noundef %56)
  store ptr %57, ptr %15, align 8, !tbaa !52
  %58 = load ptr, ptr %15, align 8, !tbaa !52
  %59 = getelementptr inbounds nuw %struct.EncodedFrame, ptr %58, i32 0, i32 2
  store i32 0, ptr %59, align 8, !tbaa !94
  %60 = load ptr, ptr %15, align 8, !tbaa !52
  %61 = getelementptr inbounds nuw %struct.EncodedFrame, ptr %60, i32 0, i32 0
  %62 = getelementptr inbounds nuw %struct.WebPMuxFrameInfo, ptr %61, i32 0, i32 4
  store i32 3, ptr %62, align 4, !tbaa !95
  %63 = load ptr, ptr %15, align 8, !tbaa !52
  %64 = getelementptr inbounds nuw %struct.EncodedFrame, ptr %63, i32 0, i32 0
  %65 = getelementptr inbounds nuw %struct.WebPMuxFrameInfo, ptr %64, i32 0, i32 1
  store i32 0, ptr %65, align 8, !tbaa !96
  %66 = load ptr, ptr %15, align 8, !tbaa !52
  %67 = getelementptr inbounds nuw %struct.EncodedFrame, ptr %66, i32 0, i32 0
  %68 = getelementptr inbounds nuw %struct.WebPMuxFrameInfo, ptr %67, i32 0, i32 2
  store i32 0, ptr %68, align 4, !tbaa !97
  %69 = load ptr, ptr %15, align 8, !tbaa !52
  %70 = getelementptr inbounds nuw %struct.EncodedFrame, ptr %69, i32 0, i32 0
  %71 = getelementptr inbounds nuw %struct.WebPMuxFrameInfo, ptr %70, i32 0, i32 5
  store i32 0, ptr %71, align 8, !tbaa !98
  %72 = load ptr, ptr %15, align 8, !tbaa !52
  %73 = getelementptr inbounds nuw %struct.EncodedFrame, ptr %72, i32 0, i32 0
  %74 = getelementptr inbounds nuw %struct.WebPMuxFrameInfo, ptr %73, i32 0, i32 6
  store i32 0, ptr %74, align 4, !tbaa !99
  %75 = load i32, ptr %5, align 4, !tbaa !8
  %76 = load ptr, ptr %15, align 8, !tbaa !52
  %77 = getelementptr inbounds nuw %struct.EncodedFrame, ptr %76, i32 0, i32 0
  %78 = getelementptr inbounds nuw %struct.WebPMuxFrameInfo, ptr %77, i32 0, i32 3
  store i32 %75, ptr %78, align 8, !tbaa !86
  %79 = load i32, ptr %14, align 4, !tbaa !8
  %80 = icmp ne i32 %79, 0
  br i1 %80, label %81, label %82

81:                                               ; preds = %50
  br label %83

82:                                               ; preds = %50
  br label %83

83:                                               ; preds = %82, %81
  %84 = phi ptr [ %11, %81 ], [ %13, %82 ]
  %85 = load ptr, ptr %15, align 8, !tbaa !52
  %86 = getelementptr inbounds nuw %struct.EncodedFrame, ptr %85, i32 0, i32 0
  %87 = getelementptr inbounds nuw %struct.WebPMuxFrameInfo, ptr %86, i32 0, i32 0
  %88 = call i32 @WebPDataCopy(ptr noundef %84, ptr noundef %87)
  %89 = icmp ne i32 %88, 0
  br i1 %89, label %91, label %90

90:                                               ; preds = %83
  store i32 0, ptr %3, align 4
  store i32 1, ptr %16, align 4
  br label %110

91:                                               ; preds = %83
  %92 = load ptr, ptr %4, align 8, !tbaa !17
  %93 = getelementptr inbounds nuw %struct.WebPAnimEncoder, ptr %92, i32 0, i32 14
  %94 = load i64, ptr %93, align 8, !tbaa !60
  %95 = add i64 %94, 1
  store i64 %95, ptr %93, align 8, !tbaa !60
  %96 = load ptr, ptr %4, align 8, !tbaa !17
  %97 = getelementptr inbounds nuw %struct.WebPAnimEncoder, ptr %96, i32 0, i32 18
  %98 = load i32, ptr %97, align 4, !tbaa !41
  %99 = add nsw i32 %98, 1
  store i32 %99, ptr %97, align 4, !tbaa !41
  %100 = load ptr, ptr %4, align 8, !tbaa !17
  %101 = getelementptr inbounds nuw %struct.WebPAnimEncoder, ptr %100, i32 0, i32 14
  %102 = load i64, ptr %101, align 8, !tbaa !60
  %103 = sub i64 %102, 1
  %104 = load ptr, ptr %4, align 8, !tbaa !17
  %105 = getelementptr inbounds nuw %struct.WebPAnimEncoder, ptr %104, i32 0, i32 15
  store i64 %103, ptr %105, align 8, !tbaa !61
  %106 = load ptr, ptr %4, align 8, !tbaa !17
  %107 = getelementptr inbounds nuw %struct.WebPAnimEncoder, ptr %106, i32 0, i32 21
  store i32 0, ptr %107, align 8, !tbaa !44
  %108 = load ptr, ptr %4, align 8, !tbaa !17
  %109 = getelementptr inbounds nuw %struct.WebPAnimEncoder, ptr %108, i32 0, i32 3
  call void @llvm.memcpy.p0.p0.i64(ptr align 4 %109, ptr align 4 %9, i64 16, i1 false), !tbaa.struct !100
  store i32 0, ptr %16, align 4
  br label %110

110:                                              ; preds = %91, %90
  call void @llvm.lifetime.end.p0(i64 8, ptr %15) #8
  call void @llvm.lifetime.end.p0(i64 4, ptr %14) #8
  call void @llvm.lifetime.end.p0(i64 16, ptr %13) #8
  call void @llvm.lifetime.end.p0(i64 72, ptr %12) #8
  call void @llvm.lifetime.end.p0(i64 16, ptr %11) #8
  call void @llvm.lifetime.end.p0(i64 28, ptr %10) #8
  call void @llvm.lifetime.end.p0(i64 16, ptr %9) #8
  %111 = load i32, ptr %16, align 4
  switch i32 %111, label %123 [
    i32 0, label %112
  ]

112:                                              ; preds = %110
  br label %122

113:                                              ; preds = %2
  %114 = load i32, ptr %8, align 4, !tbaa !8
  %115 = load ptr, ptr %7, align 8, !tbaa !52
  %116 = getelementptr inbounds nuw %struct.EncodedFrame, ptr %115, i32 0, i32 0
  %117 = getelementptr inbounds nuw %struct.WebPMuxFrameInfo, ptr %116, i32 0, i32 3
  store i32 %114, ptr %117, align 8, !tbaa !86
  %118 = load i32, ptr %8, align 4, !tbaa !8
  %119 = load ptr, ptr %7, align 8, !tbaa !52
  %120 = getelementptr inbounds nuw %struct.EncodedFrame, ptr %119, i32 0, i32 1
  %121 = getelementptr inbounds nuw %struct.WebPMuxFrameInfo, ptr %120, i32 0, i32 3
  store i32 %118, ptr %121, align 8, !tbaa !101
  br label %122

122:                                              ; preds = %113, %112
  store i32 1, ptr %3, align 4
  store i32 1, ptr %16, align 4
  br label %123

123:                                              ; preds = %122, %110
  call void @llvm.lifetime.end.p0(i64 4, ptr %8) #8
  call void @llvm.lifetime.end.p0(i64 8, ptr %7) #8
  call void @llvm.lifetime.end.p0(i64 8, ptr %6) #8
  %124 = load i32, ptr %3, align 4
  ret i32 %124
}