; Function Attrs: nounwind uwtable
define internal fastcc range(i32 0, 2) i32 @IncreasePreviousDuration(ptr noundef nonnull captures(none) %0, i32 noundef %1) unnamed_addr #1 {
  %3 = alloca [28 x i8], align 16
  %4 = alloca %struct.WebPData, align 8
  %5 = alloca [72 x i8], align 16
  %6 = alloca %struct.WebPData, align 8
  %7 = getelementptr inbounds nuw i8, ptr %0, i64 1112
  %8 = load i64, ptr %7, align 8, !tbaa !67
  %9 = getelementptr i8, ptr %0, i64 1088
  %.val = load ptr, ptr %9, align 8, !tbaa !41
  %10 = getelementptr i8, ptr %0, i64 1104
  %.val35 = load i64, ptr %10, align 8, !tbaa !80
  %11 = getelementptr %struct.EncodedFrame, ptr %.val, i64 %.val35
  %12 = getelementptr %struct.EncodedFrame, ptr %11, i64 %8
  %13 = getelementptr i8, ptr %12, i64 -80
  %14 = load i32, ptr %13, align 8, !tbaa !91
  %15 = add nsw i32 %14, %1
  %16 = icmp sgt i32 %15, 16777215
  br i1 %16, label %17, label %56

17:                                               ; preds = %2
  call void @llvm.lifetime.start.p0(i64 28, ptr nonnull %3) #14
  call void @llvm.memcpy.p0.p0.i64(ptr noundef nonnull align 16 dereferenceable(28) %3, ptr noundef nonnull align 16 dereferenceable(28) @__const.IncreasePreviousDuration.lossless_1x1_bytes, i64 28, i1 false)
  call void @llvm.lifetime.start.p0(i64 16, ptr nonnull %4) #14
  store ptr %3, ptr %4, align 8, !tbaa !55
  %18 = getelementptr inbounds nuw i8, ptr %4, i64 8
  store i64 28, ptr %18, align 8, !tbaa !92
  call void @llvm.lifetime.start.p0(i64 72, ptr nonnull %5) #14
  call void @llvm.memcpy.p0.p0.i64(ptr noundef nonnull align 16 dereferenceable(72) %5, ptr noundef nonnull align 16 dereferenceable(72) @__const.IncreasePreviousDuration.lossy_1x1_bytes, i64 72, i1 false)
  call void @llvm.lifetime.start.p0(i64 16, ptr nonnull %6) #14
  store ptr %5, ptr %6, align 8, !tbaa !55
  %19 = getelementptr inbounds nuw i8, ptr %6, i64 8
  store i64 72, ptr %19, align 8, !tbaa !92
  %20 = getelementptr inbounds nuw i8, ptr %0, i64 68
  %21 = load i32, ptr %20, align 4, !tbaa !93
  %.not = icmp eq i32 %21, 0
  br i1 %.not, label %22, label %26

22:                                               ; preds = %17
  %23 = getelementptr inbounds nuw i8, ptr %0, i64 28
  %24 = load i32, ptr %23, align 4, !tbaa !94
  %.not33 = icmp eq i32 %24, 0
  %25 = select i1 %.not33, ptr %6, ptr %4
  br label %26

26:                                               ; preds = %22, %17
  %. = phi ptr [ %4, %17 ], [ %25, %22 ]
  %27 = getelementptr inbounds nuw i8, ptr %12, i64 96
  store i32 0, ptr %27, align 8, !tbaa !81
  %28 = getelementptr inbounds nuw i8, ptr %12, i64 28
  store i32 3, ptr %28, align 4, !tbaa !95
  %29 = getelementptr inbounds nuw i8, ptr %12, i64 16
  store i32 0, ptr %29, align 8, !tbaa !96
  %30 = getelementptr inbounds nuw i8, ptr %12, i64 20
  store i32 0, ptr %30, align 4, !tbaa !97
  %31 = getelementptr inbounds nuw i8, ptr %12, i64 32
  store i32 0, ptr %31, align 8, !tbaa !98
  %32 = getelementptr inbounds nuw i8, ptr %12, i64 36
  store i32 0, ptr %32, align 4, !tbaa !99
  %33 = getelementptr inbounds nuw i8, ptr %12, i64 24
  store i32 %1, ptr %33, align 8, !tbaa !91
  %34 = icmp eq ptr %12, null
  br i1 %34, label %.critedge, label %35

35:                                               ; preds = %26
  call void @llvm.memset.p0.i64(ptr noundef nonnull align 8 dereferenceable(16) %12, i8 0, i64 16, i1 false)
  %36 = load ptr, ptr %., align 8, !tbaa !55
  %.not.i = icmp eq ptr %36, null
  br i1 %.not.i, label %47, label %37

37:                                               ; preds = %35
  %38 = getelementptr inbounds nuw i8, ptr %., i64 8
  %39 = load i64, ptr %38, align 8, !tbaa !92
  %.not18.i = icmp eq i64 %39, 0
  br i1 %.not18.i, label %47, label %40

40:                                               ; preds = %37
  %41 = call ptr @WebPMalloc(i64 noundef %39) #14
  store ptr %41, ptr %12, align 8, !tbaa !55
  %42 = icmp eq ptr %41, null
  br i1 %42, label %.critedge, label %43

43:                                               ; preds = %40
  %44 = load ptr, ptr %., align 8, !tbaa !55
  %45 = load i64, ptr %38, align 8, !tbaa !92
  call void @llvm.memcpy.p0.p0.i64(ptr nonnull align 1 %41, ptr align 1 %44, i64 %45, i1 false)
  %46 = getelementptr inbounds nuw i8, ptr %12, i64 8
  store i64 %45, ptr %46, align 8, !tbaa !92
  br label %47

47:                                               ; preds = %43, %37, %35
  %48 = load i64, ptr %7, align 8, !tbaa !67
  %49 = add i64 %48, 1
  store i64 %49, ptr %7, align 8, !tbaa !67
  %50 = getelementptr inbounds nuw i8, ptr %0, i64 1140
  %51 = load i32, ptr %50, align 4, !tbaa !85
  %52 = add nsw i32 %51, 1
  store i32 %52, ptr %50, align 4, !tbaa !85
  %53 = getelementptr inbounds nuw i8, ptr %0, i64 1120
  store i64 %48, ptr %53, align 8, !tbaa !84
  %54 = getelementptr inbounds nuw i8, ptr %0, i64 1152
  store i32 0, ptr %54, align 8, !tbaa !86
  %55 = getelementptr inbounds nuw i8, ptr %0, i64 52
  call void @llvm.memcpy.p0.p0.i64(ptr noundef nonnull align 4 dereferenceable(16) %55, ptr noundef nonnull align 4 dereferenceable(16) @__const.IncreasePreviousDuration.rect, i64 16, i1 false), !tbaa.struct !87
  call void @llvm.lifetime.end.p0(i64 16, ptr nonnull %6) #14
  call void @llvm.lifetime.end.p0(i64 72, ptr nonnull %5) #14
  call void @llvm.lifetime.end.p0(i64 16, ptr nonnull %4) #14
  call void @llvm.lifetime.end.p0(i64 28, ptr nonnull %3) #14
  br label %58

56:                                               ; preds = %2
  store i32 %15, ptr %13, align 8, !tbaa !91
  %57 = getelementptr i8, ptr %12, i64 -32
  store i32 %15, ptr %57, align 8, !tbaa !100
  br label %58

.critedge:                                        ; preds = %40, %26
  call void @llvm.lifetime.end.p0(i64 16, ptr nonnull %6) #14
  call void @llvm.lifetime.end.p0(i64 72, ptr nonnull %5) #14
  call void @llvm.lifetime.end.p0(i64 16, ptr nonnull %4) #14
  call void @llvm.lifetime.end.p0(i64 28, ptr nonnull %3) #14
  br label %58

58:                                               ; preds = %56, %47, %.critedge
  %.1 = phi i32 [ 0, %.critedge ], [ 1, %47 ], [ 1, %56 ]
  ret i32 %.1
}